target datalayout = "e-m:e-p270:32:32-p271:32:32-p272:64:64-i64:64-i128:128-f80:128-n8:16:32:64-S128"
target triple = "x86_64-pc-linux-gnu"

%"class.nanogui::Color" = type { %"struct.nanogui::Array" }
%"struct.nanogui::Array" = type { [4 x float] }
%"class.nanogui::Object.base" = type <{ ptr, %"struct.std::__1::atomic" }>
%"struct.std::__1::atomic" = type { %"struct.std::__1::__atomic_base" }
%"struct.std::__1::__atomic_base" = type { %"struct.std::__1::__atomic_base.0" }
%"struct.std::__1::__atomic_base.0" = type { %"struct.std::__1::__cxx_atomic_impl" }
%"struct.std::__1::__cxx_atomic_impl" = type { %"struct.std::__1::__cxx_atomic_base_impl" }
%"struct.std::__1::__cxx_atomic_base_impl" = type { i32 }
%"class.nanogui::ref" = type { ptr }
%"class.nanogui::ref.1" = type { ptr }
%"struct.nanogui::Array.2" = type { [2 x i32] }
%"class.std::__1::vector" = type { ptr, ptr, %"class.std::__1::__compressed_pair" }
%"class.std::__1::__compressed_pair" = type { %"struct.std::__1::__compressed_pair_elem" }
%"struct.std::__1::__compressed_pair_elem" = type { ptr }
%"class.std::__1::basic_string" = type { %"class.std::__1::__compressed_pair.4" }
%"class.std::__1::__compressed_pair.4" = type { %"struct.std::__1::__compressed_pair_elem.5" }
%"struct.std::__1::__compressed_pair_elem.5" = type { %"struct.std::__1::basic_string<char>::__rep" }
%"struct.std::__1::basic_string<char>::__rep" = type { %union.anon }
%union.anon = type { %"struct.std::__1::basic_string<char>::__long" }
%"struct.std::__1::basic_string<char>::__long" = type { %struct.anon.6, i64, ptr }
%struct.anon.6 = type { i64 }
%"class.nanogui::Widget" = type <{ %"class.nanogui::Object.base", [4 x i8], ptr, %"class.nanogui::ref", %"class.nanogui::ref.1", %"struct.nanogui::Array.2", %"struct.nanogui::Array.2", %"struct.nanogui::Array.2", %"class.std::__1::vector", i8, i8, i8, i8, [4 x i8], %"class.std::__1::basic_string", i32, float, i32, [4 x i8] }>
%struct.NVGcolor = type { %union.anon.103 }
%union.anon.103 = type { [4 x float] }
%struct.NVGpaint = type { [6 x float], [2 x float], float, float, %struct.NVGcolor, %struct.NVGcolor, i32 }
%"class.nanogui::Theme" = type { %"class.nanogui::Object.base", i32, i32, i32, i32, float, i32, i32, i32, i32, i32, i32, i32, float, i32, i32, i32, i32, i32, i32, %"class.nanogui::Color", %"class.nanogui::Color", %"class.nanogui::Color", %"class.nanogui::Color", %"class.nanogui::Color", %"class.nanogui::Color", %"class.nanogui::Color", %"class.nanogui::Color", %"class.nanogui::Color", %"class.nanogui::Color", %"class.nanogui::Color", %"class.nanogui::Color", %"class.nanogui::Color", %"class.nanogui::Color", %"class.nanogui::Color", %"class.nanogui::Color", %"class.nanogui::Color", %"class.nanogui::Color", %"class.nanogui::Color", %"class.nanogui::Color", %"class.nanogui::Color", %"class.nanogui::Color", %"class.nanogui::Color", %"class.nanogui::Color", %"class.nanogui::Color", i32, i32, i32, i32, i32, i32, i32, i32, i32, i32 }

; Function Attrs: mustprogress nounwind uwtable
define linkonce_odr dso_local noundef nonnull align 4 dereferenceable(16) ptr @_ZNK7nanogui5ColorcvRK8NVGcolorEv(ptr noundef nonnull align 4 dereferenceable(16) %0) #1 comdat align 2 {
  %2 = alloca ptr, align 8
  store ptr %0, ptr %2, align 8
  %3 = load ptr, ptr %2, align 8
  %4 = getelementptr inbounds %"struct.nanogui::Array", ptr %3, i32 0, i32 0
  %5 = getelementptr inbounds [4 x float], ptr %4, i64 0, i64 0
  ret ptr %5
}

; Function Attrs: mustprogress nounwind uwtable
define linkonce_odr dso_local noundef nonnull align 4 dereferenceable(4) ptr @_ZN7nanogui5ArrayIiLm2EE1yILm2ETnNSt3__19enable_ifIXgeT_Li2EEiE4typeELi0EEERiv(ptr noundef nonnull align 4 dereferenceable(8) %0) #1 comdat align 2 {
  %2 = alloca ptr, align 8
  store ptr %0, ptr %2, align 8
  %3 = load ptr, ptr %2, align 8
  %4 = getelementptr inbounds %"struct.nanogui::Array.2", ptr %3, i32 0, i32 0
  %5 = getelementptr inbounds [2 x i32], ptr %4, i64 0, i64 1
  ret ptr %5
}

; Function Attrs: mustprogress nounwind uwtable
define linkonce_odr dso_local noundef nonnull align 4 dereferenceable(4) ptr @_ZN7nanogui5ArrayIiLm2EE1xILm2ETnNSt3__19enable_ifIXgeT_Li1EEiE4typeELi0EEERiv(ptr noundef nonnull align 4 dereferenceable(8) %0) #1 comdat align 2 {
  %2 = alloca ptr, align 8
  store ptr %0, ptr %2, align 8
  %3 = load ptr, ptr %2, align 8
  %4 = getelementptr inbounds %"struct.nanogui::Array.2", ptr %3, i32 0, i32 0
  %5 = getelementptr inbounds [2 x i32], ptr %4, i64 0, i64 0
  ret ptr %5
}

; Function Attrs: mustprogress nounwind uwtable
define linkonce_odr dso_local noundef ptr @_ZN7nanogui3refINS_5ThemeEEptEv(ptr noundef nonnull align 8 dereferenceable(8) %0) #1 comdat align 2 {
  %2 = alloca ptr, align 8
  store ptr %0, ptr %2, align 8
  %3 = load ptr, ptr %2, align 8
  %4 = getelementptr inbounds %"class.nanogui::ref", ptr %3, i32 0, i32 0
  %5 = load ptr, ptr %4, align 8
  ret ptr %5
}

; Function Attrs: mustprogress uwtable
define dso_local void @_ZN3tev11ImageCanvas15drawEdgeShadowsEP10NVGcontext(ptr noundef nonnull align 8 dereferenceable(376) %0, ptr noundef %1) #7 align 2 {
  %3 = alloca ptr, align 8
  %4 = alloca ptr, align 8
  %5 = alloca i32, align 4
  %6 = alloca i32, align 4
  %7 = alloca %struct.NVGpaint, align 4
  %8 = alloca %struct.NVGcolor, align 4
  %9 = alloca %struct.NVGcolor, align 8
  %10 = alloca %struct.NVGpaint, align 8
  store ptr %0, ptr %3, align 8
  store ptr %1, ptr %4, align 8
  %11 = load ptr, ptr %3, align 8
  %12 = getelementptr inbounds %"class.nanogui::Widget", ptr %11, i32 0, i32 3
  %13 = call noundef ptr @_ZN7nanogui3refINS_5ThemeEEptEv(ptr noundef nonnull align 8 dereferenceable(8) %12)
  %14 = getelementptr inbounds %"class.nanogui::Theme", ptr %13, i32 0, i32 11
  %15 = load i32, ptr %14, align 4
  store i32 %15, ptr %5, align 4
  %16 = getelementptr inbounds %"class.nanogui::Widget", ptr %11, i32 0, i32 3
  %17 = call noundef ptr @_ZN7nanogui3refINS_5ThemeEEptEv(ptr noundef nonnull align 8 dereferenceable(8) %16)
  %18 = getelementptr inbounds %"class.nanogui::Theme", ptr %17, i32 0, i32 9
  %19 = load i32, ptr %18, align 4
  store i32 %19, ptr %6, align 4
  %20 = load ptr, ptr %4, align 8
  %21 = getelementptr inbounds %"class.nanogui::Widget", ptr %11, i32 0, i32 5
  %22 = call noundef nonnull align 4 dereferenceable(4) ptr @_ZN7nanogui5ArrayIiLm2EE1xILm2ETnNSt3__19enable_ifIXgeT_Li1EEiE4typeELi0EEERiv(ptr noundef nonnull align 4 dereferenceable(8) %21)
  %23 = load i32, ptr %22, align 4
  %24 = sitofp i32 %23 to float
  %25 = getelementptr inbounds %"class.nanogui::Widget", ptr %11, i32 0, i32 5
  %26 = call noundef nonnull align 4 dereferenceable(4) ptr @_ZN7nanogui5ArrayIiLm2EE1yILm2ETnNSt3__19enable_ifIXgeT_Li2EEiE4typeELi0EEERiv(ptr noundef nonnull align 4 dereferenceable(8) %25)
  %27 = load i32, ptr %26, align 4
  %28 = sitofp i32 %27 to float
  %29 = getelementptr inbounds %"class.nanogui::Widget", ptr %11, i32 0, i32 6
  %30 = call noundef nonnull align 4 dereferenceable(4) ptr @_ZN7nanogui5ArrayIiLm2EE1xILm2ETnNSt3__19enable_ifIXgeT_Li1EEiE4typeELi0EEERiv(ptr noundef nonnull align 4 dereferenceable(8) %29)
  %31 = load i32, ptr %30, align 4
  %32 = sitofp i32 %31 to float
  %33 = getelementptr inbounds %"class.nanogui::Widget", ptr %11, i32 0, i32 6
  %34 = call noundef nonnull align 4 dereferenceable(4) ptr @_ZN7nanogui5ArrayIiLm2EE1yILm2ETnNSt3__19enable_ifIXgeT_Li2EEiE4typeELi0EEERiv(ptr noundef nonnull align 4 dereferenceable(8) %33)
  %35 = load i32, ptr %34, align 4
  %36 = sitofp i32 %35 to float
  %37 = load i32, ptr %6, align 4
  %38 = mul nsw i32 %37, 2
  %39 = sitofp i32 %38 to float
  %40 = load i32, ptr %5, align 4
  %41 = mul nsw i32 %40, 2
  %42 = sitofp i32 %41 to float
  %43 = getelementptr inbounds %"class.nanogui::Widget", ptr %11, i32 0, i32 3
  %44 = call noundef ptr @_ZN7nanogui3refINS_5ThemeEEptEv(ptr noundef nonnull align 8 dereferenceable(8) %43)
  %45 = getelementptr inbounds %"class.nanogui::Theme", ptr %44, i32 0, i32 21
  %46 = call noundef nonnull align 4 dereferenceable(16) ptr @_ZNK7nanogui5ColorcvRK8NVGcolorEv(ptr noundef nonnull align 4 dereferenceable(16) %45)
  call void @llvm.memcpy.p0.p0.i64(ptr align 4 %8, ptr align 4 %46, i64 16, i1 false)
  %47 = getelementptr inbounds %"class.nanogui::Widget", ptr %11, i32 0, i32 3
  %48 = call noundef ptr @_ZN7nanogui3refINS_5ThemeEEptEv(ptr noundef nonnull align 8 dereferenceable(8) %47)
  %49 = getelementptr inbounds %"class.nanogui::Theme", ptr %48, i32 0, i32 20
  %50 = call noundef nonnull align 4 dereferenceable(16) ptr @_ZNK7nanogui5ColorcvRK8NVGcolorEv(ptr noundef nonnull align 4 dereferenceable(16) %49)
  call void @llvm.memcpy.p0.p0.i64(ptr align 4 %9, ptr align 4 %50, i64 16, i1 false)
  %51 = getelementptr inbounds { <2 x float>, <2 x float> }, ptr %8, i32 0, i32 0
  %52 = load <2 x float>, ptr %51, align 4
  %53 = getelementptr inbounds { <2 x float>, <2 x float> }, ptr %8, i32 0, i32 1
  %54 = load <2 x float>, ptr %53, align 4
  call void @nvgBoxGradient(ptr dead_on_unwind writable sret(%struct.NVGpaint) align 4 %7, ptr noundef %20, float noundef %24, float noundef %28, float noundef %32, float noundef %36, float noundef %39, float noundef %42, <2 x float> %52, <2 x float> %54, ptr noundef byval(%struct.NVGcolor) align 8 %9)
  %55 = load ptr, ptr %4, align 8
  call void @nvgSave(ptr noundef %55)
  %56 = load ptr, ptr %4, align 8
  call void @nvgResetScissor(ptr noundef %56)
  %57 = load ptr, ptr %4, align 8
  call void @nvgBeginPath(ptr noundef %57)
  %58 = load ptr, ptr %4, align 8
  %59 = getelementptr inbounds %"class.nanogui::Widget", ptr %11, i32 0, i32 5
  %60 = call noundef nonnull align 4 dereferenceable(4) ptr @_ZN7nanogui5ArrayIiLm2EE1xILm2ETnNSt3__19enable_ifIXgeT_Li1EEiE4typeELi0EEERiv(ptr noundef nonnull align 4 dereferenceable(8) %59)
  %61 = load i32, ptr %60, align 4
  %62 = sitofp i32 %61 to float
  %63 = getelementptr inbounds %"class.nanogui::Widget", ptr %11, i32 0, i32 5
  %64 = call noundef nonnull align 4 dereferenceable(4) ptr @_ZN7nanogui5ArrayIiLm2EE1yILm2ETnNSt3__19enable_ifIXgeT_Li2EEiE4typeELi0EEERiv(ptr noundef nonnull align 4 dereferenceable(8) %63)
  %65 = load i32, ptr %64, align 4
  %66 = sitofp i32 %65 to float
  %67 = getelementptr inbounds %"class.nanogui::Widget", ptr %11, i32 0, i32 6
  %68 = call noundef nonnull align 4 dereferenceable(4) ptr @_ZN7nanogui5ArrayIiLm2EE1xILm2ETnNSt3__19enable_ifIXgeT_Li1EEiE4typeELi0EEERiv(ptr noundef nonnull align 4 dereferenceable(8) %67)
  %69 = load i32, ptr %68, align 4
  %70 = sitofp i32 %69 to float
  %71 = getelementptr inbounds %"class.nanogui::Widget", ptr %11, i32 0, i32 6
  %72 = call noundef nonnull align 4 dereferenceable(4) ptr @_ZN7nanogui5ArrayIiLm2EE1yILm2ETnNSt3__19enable_ifIXgeT_Li2EEiE4typeELi0EEERiv(ptr noundef nonnull align 4 dereferenceable(8) %71)
  %73 = load i32, ptr %72, align 4
  %74 = sitofp i32 %73 to float
  call void @nvgRect(ptr noundef %58, float noundef %62, float noundef %66, float noundef %70, float noundef %74)
  %75 = load ptr, ptr %4, align 8
  %76 = getelementptr inbounds %"class.nanogui::Widget", ptr %11, i32 0, i32 5
  %77 = call noundef nonnull align 4 dereferenceable(4) ptr @_ZN7nanogui5ArrayIiLm2EE1xILm2ETnNSt3__19enable_ifIXgeT_Li1EEiE4typeELi0EEERiv(ptr noundef nonnull align 4 dereferenceable(8) %76)
  %78 = load i32, ptr %77, align 4
  %79 = load i32, ptr %5, align 4
  %80 = add nsw i32 %78, %79
  %81 = sitofp i32 %80 to float
  %82 = getelementptr inbounds %"class.nanogui::Widget", ptr %11, i32 0, i32 5
  %83 = call noundef nonnull align 4 dereferenceable(4) ptr @_ZN7nanogui5ArrayIiLm2EE1yILm2ETnNSt3__19enable_ifIXgeT_Li2EEiE4typeELi0EEERiv(ptr noundef nonnull align 4 dereferenceable(8) %82)
  %84 = load i32, ptr %83, align 4
  %85 = load i32, ptr %5, align 4
  %86 = add nsw i32 %84, %85
  %87 = sitofp i32 %86 to float
  %88 = getelementptr inbounds %"class.nanogui::Widget", ptr %11, i32 0, i32 6
  %89 = call noundef nonnull align 4 dereferenceable(4) ptr @_ZN7nanogui5ArrayIiLm2EE1xILm2ETnNSt3__19enable_ifIXgeT_Li1EEiE4typeELi0EEERiv(ptr noundef nonnull align 4 dereferenceable(8) %88)
  %90 = load i32, ptr %89, align 4
  %91 = load i32, ptr %5, align 4
  %92 = mul nsw i32 2, %91
  %93 = sub nsw i32 %90, %92
  %94 = sitofp i32 %93 to float
  %95 = getelementptr inbounds %"class.nanogui::Widget", ptr %11, i32 0, i32 6
  %96 = call noundef nonnull align 4 dereferenceable(4) ptr @_ZN7nanogui5ArrayIiLm2EE1yILm2ETnNSt3__19enable_ifIXgeT_Li2EEiE4typeELi0EEERiv(ptr noundef nonnull align 4 dereferenceable(8) %95)
  %97 = load i32, ptr %96, align 4
  %98 = load i32, ptr %5, align 4
  %99 = mul nsw i32 2, %98
  %100 = sub nsw i32 %97, %99
  %101 = sitofp i32 %100 to float
  %102 = load i32, ptr %6, align 4
  %103 = sitofp i32 %102 to float
  call void @nvgRoundedRect(ptr noundef %75, float noundef %81, float noundef %87, float noundef %94, float noundef %101, float noundef %103)
  %104 = load ptr, ptr %4, align 8
  call void @nvgPathWinding(ptr noundef %104, i32 noundef 2)
  %105 = load ptr, ptr %4, align 8
  call void @llvm.memcpy.p0.p0.i64(ptr align 4 %10, ptr align 4 %7, i64 76, i1 false)
  call void @nvgFillPaint(ptr noundef %105, ptr noundef byval(%struct.NVGpaint) align 8 %10)
  %106 = load ptr, ptr %4, align 8
  call void @nvgFill(ptr noundef %106)
  %107 = load ptr, ptr %4, align 8
  call void @nvgRestore(ptr noundef %107)
  ret void
}