; Function Attrs: mustprogress uwtable
define dso_local void @_ZN3tev11ImageCanvas15drawEdgeShadowsEP10NVGcontext(ptr nocapture noundef nonnull readonly align 8 dereferenceable(376) %0, ptr noundef %1) local_unnamed_addr #7 align 2 {
  %3 = alloca %struct.NVGpaint, align 8
  %4 = alloca %struct.NVGcolor, align 8
  %5 = getelementptr inbounds i8, ptr %0, i64 24
  %6 = load ptr, ptr %5, align 8
  %7 = getelementptr inbounds i8, ptr %6, i64 52
  %8 = load i32, ptr %7, align 4
  %9 = getelementptr inbounds i8, ptr %6, i64 44
  %10 = load i32, ptr %9, align 4
  %11 = getelementptr inbounds i8, ptr %0, i64 40
  %12 = load i32, ptr %11, align 8
  %13 = sitofp i32 %12 to float
  %14 = getelementptr inbounds i8, ptr %0, i64 44
  %15 = load i32, ptr %14, align 4
  %16 = sitofp i32 %15 to float
  %17 = getelementptr inbounds i8, ptr %0, i64 48
  %18 = load i32, ptr %17, align 8
  %19 = sitofp i32 %18 to float
  %20 = getelementptr inbounds i8, ptr %0, i64 52
  %21 = load i32, ptr %20, align 4
  %22 = sitofp i32 %21 to float
  %23 = shl nsw i32 %10, 1
  %24 = sitofp i32 %23 to float
  %25 = shl nsw i32 %8, 1
  %26 = sitofp i32 %25 to float
  %27 = getelementptr inbounds i8, ptr %6, i64 104
  %.sroa.0.0.copyload = load <2 x float>, ptr %27, align 4
  %.sroa.2.0..sroa_idx = getelementptr inbounds i8, ptr %6, i64 112
  %.sroa.2.0.copyload = load <2 x float>, ptr %.sroa.2.0..sroa_idx, align 4
  %28 = getelementptr inbounds i8, ptr %6, i64 88
  call void @llvm.memcpy.p0.p0.i64(ptr noundef nonnull align 8 dereferenceable(16) %4, ptr noundef nonnull align 4 dereferenceable(16) %28, i64 16, i1 false)
  call void @nvgBoxGradient(ptr dead_on_unwind nonnull writable sret(%struct.NVGpaint) align 4 %3, ptr noundef %1, float noundef %13, float noundef %16, float noundef %19, float noundef %22, float noundef %24, float noundef %26, <2 x float> %.sroa.0.0.copyload, <2 x float> %.sroa.2.0.copyload, ptr noundef nonnull byval(%struct.NVGcolor) align 8 %4)
  call void @nvgSave(ptr noundef %1)
  call void @nvgResetScissor(ptr noundef %1)
  call void @nvgBeginPath(ptr noundef %1)
  %29 = load i32, ptr %11, align 8
  %30 = sitofp i32 %29 to float
  %31 = load i32, ptr %14, align 4
  %32 = sitofp i32 %31 to float
  %33 = load i32, ptr %17, align 8
  %34 = sitofp i32 %33 to float
  %35 = load i32, ptr %20, align 4
  %36 = sitofp i32 %35 to float
  call void @nvgRect(ptr noundef %1, float noundef %30, float noundef %32, float noundef %34, float noundef %36)
  %37 = load i32, ptr %11, align 8
  %38 = add nsw i32 %37, %8
  %39 = sitofp i32 %38 to float
  %40 = load i32, ptr %14, align 4
  %41 = add nsw i32 %40, %8
  %42 = sitofp i32 %41 to float
  %43 = load i32, ptr %17, align 8
  %44 = sub nsw i32 %43, %25
  %45 = sitofp i32 %44 to float
  %46 = load i32, ptr %20, align 4
  %47 = sub nsw i32 %46, %25
  %48 = sitofp i32 %47 to float
  %49 = sitofp i32 %10 to float
  call void @nvgRoundedRect(ptr noundef %1, float noundef %39, float noundef %42, float noundef %45, float noundef %48, float noundef %49)
  call void @nvgPathWinding(ptr noundef %1, i32 noundef 2)
  call void @nvgFillPaint(ptr noundef %1, ptr noundef nonnull byval(%struct.NVGpaint) align 8 %3)
  call void @nvgFill(ptr noundef %1)
  call void @nvgRestore(ptr noundef %1)
  ret void
}